target datalayout = "e-m:e-p270:32:32-p271:32:32-p272:64:64-i64:64-i128:128-f80:128-n8:16:32:64-S128"
target triple = "x86_64-pc-linux-gnu"

%struct.TSQueryParserStateData = type { ptr, ptr, ptr, i32, i32, ptr, ptr, ptr, i32, i32, ptr, ptr }
%struct.QueryOperand = type { i8, i8, i8, i32, i32 }

; Function Attrs: nounwind uwtable
define dso_local void @pushStop(ptr noundef %0) #0 {
  %2 = alloca ptr, align 8
  %3 = alloca ptr, align 8
  store ptr %0, ptr %2, align 8
  call void @llvm.lifetime.start.p0(i64 8, ptr %3) #11
  %4 = call ptr @palloc0(i64 noundef 12)
  store ptr %4, ptr %3, align 8
  %5 = load ptr, ptr %3, align 8
  %6 = getelementptr inbounds nuw %struct.QueryOperand, ptr %5, i32 0, i32 0
  store i8 3, ptr %6, align 4
  %7 = load ptr, ptr %3, align 8
  %8 = load ptr, ptr %2, align 8
  %9 = getelementptr inbounds nuw %struct.TSQueryParserStateData, ptr %8, i32 0, i32 5
  %10 = load ptr, ptr %9, align 8
  %11 = call ptr @lcons(ptr noundef %7, ptr noundef %10)
  %12 = load ptr, ptr %2, align 8
  %13 = getelementptr inbounds nuw %struct.TSQueryParserStateData, ptr %12, i32 0, i32 5
  store ptr %11, ptr %13, align 8
  call void @llvm.lifetime.end.p0(i64 8, ptr %3) #11
  ret void
}