; Function Attrs: nounwind uwtable
define dso_local void @pushStop(ptr noundef captures(none) %0) local_unnamed_addr #0 {
  %2 = tail call ptr @palloc0(i64 noundef 12) #12
  store i8 3, ptr %2, align 4
  %3 = getelementptr inbounds nuw i8, ptr %0, i64 32
  %4 = load ptr, ptr %3, align 8
  %5 = tail call ptr @lcons(ptr noundef nonnull %2, ptr noundef %4) #12
  store ptr %5, ptr %3, align 8
  ret void
}